; Function Attrs: nounwind uwtable
define hidden range(i32 0, 2) i32 @_cmsRead15Fixed16Number(ptr noundef %0, ptr noundef writeonly %1) local_unnamed_addr #2 {
  %3 = alloca i32, align 4
  %4 = getelementptr inbounds i8, ptr %0, i64 280
  %5 = load ptr, ptr %4, align 8
  %6 = call i32 %5(ptr noundef %0, ptr noundef nonnull %3, i32 noundef 4, i32 noundef 1) #12
  %.not = icmp eq i32 %6, 1
  br i1 %.not, label %7, label %12

7:                                                ; preds = %2
  %.not5 = icmp eq ptr %1, null
  br i1 %.not5, label %12, label %8

8:                                                ; preds = %7
  %9 = load i32, ptr %3, align 4
  %.sroa.0.0.insert.insert.i = call noundef i32 @llvm.bswap.i32(i32 %9)
  %10 = sitofp i32 %.sroa.0.0.insert.insert.i to double
  %11 = fmul double %10, 0x3EF0000000000000
  store double %11, ptr %1, align 8
  br label %12

12:                                               ; preds = %7, %8, %2
  %.0 = phi i32 [ 0, %2 ], [ 1, %8 ], [ 1, %7 ]
  ret i32 %.0
}